; ModuleID = './fuzz/fuzz.cpp'
source_filename = "./fuzz/fuzz.cpp"
target datalayout = "e-m:e-p270:32:32-p271:32:32-p272:64:64-i64:64-i128:128-f80:128-n8:16:32:64-S128"
target triple = "x86_64-unknown-linux-gnu"

%"class.std::ios_base::Init" = type { i8 }
%"class.std::basic_ostream" = type { ptr, %"class.std::basic_ios" }
%"class.std::basic_ios" = type { %"class.std::ios_base", ptr, i8, i8, ptr, ptr, ptr, ptr }
%"class.std::ios_base" = type { ptr, i64, i64, i32, i32, i32, ptr, %"struct.std::ios_base::_Words", [8 x %"struct.std::ios_base::_Words"], i32, ptr, %"class.std::locale" }
%"struct.std::ios_base::_Words" = type { ptr, i64 }
%"class.std::locale" = type { ptr }
%"class.std::__cxx11::basic_string" = type { %"struct.std::__cxx11::basic_string<char>::_Alloc_hider", i64, %union.anon }
%"struct.std::__cxx11::basic_string<char>::_Alloc_hider" = type { ptr }
%union.anon = type { i64, [8 x i8] }
%"class.std::filesystem::__cxx11::path" = type { %"class.std::__cxx11::basic_string", %"struct.std::filesystem::__cxx11::path::_List" }
%"struct.std::filesystem::__cxx11::path::_List" = type { %"class.std::unique_ptr" }
%"class.std::unique_ptr" = type { %"struct.std::__uniq_ptr_data" }
%"struct.std::__uniq_ptr_data" = type { %"class.std::__uniq_ptr_impl" }
%"class.std::__uniq_ptr_impl" = type { %"class.std::tuple" }
%"class.std::tuple" = type { %"struct.std::_Tuple_impl" }
%"struct.std::_Tuple_impl" = type { %"struct.std::_Head_base.1" }
%"struct.std::_Head_base.1" = type { ptr }
%"class.std::basic_string_view" = type { i64, ptr }
%"class.std::allocator" = type { i8 }
%"class.std::__cxx11::basic_ostringstream" = type { %"class.std::basic_ostream.base", %"class.std::__cxx11::basic_stringbuf", %"class.std::basic_ios" }
%"class.std::basic_ostream.base" = type { ptr }
%"class.std::__cxx11::basic_stringbuf" = type { %"class.std::basic_streambuf", i32, %"class.std::__cxx11::basic_string" }
%"class.std::basic_streambuf" = type { ptr, ptr, ptr, ptr, ptr, ptr, ptr, %"class.std::locale" }
%"struct.std::_Setw" = type { i32 }
%"struct.std::_Setfill" = type { i8 }
%"class.std::basic_ofstream" = type { %"class.std::basic_ostream.base", %"class.std::basic_filebuf", %"class.std::basic_ios" }
%"class.std::basic_filebuf" = type { %"class.std::basic_streambuf", %union.pthread_mutex_t, %"class.std::__basic_file", i32, %struct.__mbstate_t, %struct.__mbstate_t, %struct.__mbstate_t, ptr, i64, i8, i8, i8, i8, ptr, ptr, i8, ptr, ptr, i64, ptr, ptr }
%union.pthread_mutex_t = type { %struct.__pthread_mutex_s }
%struct.__pthread_mutex_s = type { i32, i32, i32, i32, i32, i16, i16, %struct.__pthread_internal_list }
%struct.__pthread_internal_list = type { ptr, ptr }
%"class.std::__basic_file" = type <{ ptr, i8, [7 x i8] }>
%struct.__mbstate_t = type { i32, %union.anon.2 }
%union.anon.2 = type { i32 }
%"struct.std::__cxx11::basic_string<char>::__sv_wrapper" = type { %"class.std::basic_string_view" }

$_ZNSt10filesystem7__cxx114pathC2INSt7__cxx1112basic_stringIcSt11char_traitsIcESaIcEEES1_EERKT_NS1_6formatE = comdat any

$_ZNSt10filesystem7__cxx11dvERKNS0_4pathES3_ = comdat any

$_ZNSt10filesystem7__cxx114pathD2Ev = comdat any

$_ZNKSt10filesystem7__cxx114path6stringEv = comdat any

$_ZSt4setwi = comdat any

$_ZSt7setfillIcESt8_SetfillIT_ES1_ = comdat any

$_ZSt3hexRSt8ios_base = comdat any

$_ZNSt10filesystem7__cxx114pathC2ERKS1_ = comdat any

$_ZNSt10filesystem7__cxx114path5_ListD2Ev = comdat any

$_ZNSt10unique_ptrINSt10filesystem7__cxx114path5_List5_ImplENS3_13_Impl_deleterEED2Ev = comdat any

$_ZNSt15__uniq_ptr_implINSt10filesystem7__cxx114path5_List5_ImplENS3_13_Impl_deleterEE6_M_ptrEv = comdat any

$__clang_call_terminate = comdat any

$_ZNSt10unique_ptrINSt10filesystem7__cxx114path5_List5_ImplENS3_13_Impl_deleterEE11get_deleterEv = comdat any

$_ZSt3getILm0EJPNSt10filesystem7__cxx114path5_List5_ImplENS3_13_Impl_deleterEEERNSt13tuple_elementIXT_ESt5tupleIJDpT0_EEE4typeERSB_ = comdat any

$_ZSt12__get_helperILm0EPNSt10filesystem7__cxx114path5_List5_ImplEJNS3_13_Impl_deleterEEERT0_RSt11_Tuple_implIXT_EJS7_DpT1_EE = comdat any

$_ZNSt11_Tuple_implILm0EJPNSt10filesystem7__cxx114path5_List5_ImplENS3_13_Impl_deleterEEE7_M_headERS7_ = comdat any

$_ZNSt10_Head_baseILm0EPNSt10filesystem7__cxx114path5_List5_ImplELb0EE7_M_headERS6_ = comdat any

$_ZNSt15__uniq_ptr_implINSt10filesystem7__cxx114path5_List5_ImplENS3_13_Impl_deleterEE10_M_deleterEv = comdat any

$_ZSt3getILm1EJPNSt10filesystem7__cxx114path5_List5_ImplENS3_13_Impl_deleterEEERNSt13tuple_elementIXT_ESt5tupleIJDpT0_EEE4typeERSB_ = comdat any

$_ZSt12__get_helperILm1ENSt10filesystem7__cxx114path5_List13_Impl_deleterEJEERT0_RSt11_Tuple_implIXT_EJS5_DpT1_EE = comdat any

$_ZNSt11_Tuple_implILm1EJNSt10filesystem7__cxx114path5_List13_Impl_deleterEEE7_M_headERS5_ = comdat any

$_ZNSt10_Head_baseILm1ENSt10filesystem7__cxx114path5_List13_Impl_deleterELb1EE7_M_headERS5_ = comdat any

$_ZNKSt10filesystem7__cxx114path6stringIcSt11char_traitsIcESaIcEEENSt7__cxx1112basic_stringIT_T0_T1_EERKSA_ = comdat any

$_ZNSt8ios_base4setfESt13_Ios_FmtflagsS0_ = comdat any

$_ZStaNRSt13_Ios_FmtflagsS_ = comdat any

$_ZStcoSt13_Ios_Fmtflags = comdat any

$_ZStoRRSt13_Ios_FmtflagsS_ = comdat any

$_ZStanSt13_Ios_FmtflagsS_ = comdat any

$_ZStorSt13_Ios_FmtflagsS_ = comdat any

$_ZNSt10filesystem7__cxx114path10_S_convertEPKcS3_ = comdat any

$_ZNSt10filesystem7__cxx118__detail14_S_range_beginIcSt11char_traitsIcESaIcEEEPKT_RKNSt7__cxx1112basic_stringIS6_T0_T1_EE = comdat any

$_ZNSt10filesystem7__cxx118__detail12_S_range_endIcSt11char_traitsIcESaIcEEEPKT_RKNSt7__cxx1112basic_stringIS6_T0_T1_EE = comdat any

$_ZNSt7__cxx1112basic_stringIcSt11char_traitsIcESaIcEEC2ISt17basic_string_viewIcS2_EvEERKT_RKS3_ = comdat any

$_ZNSt17basic_string_viewIcSt11char_traitsIcEEC2EPKcm = comdat any

@_ZStL8__ioinit = internal global %"class.std::ios_base::Init" zeroinitializer, align 1
@__dso_handle = external hidden global i8
@extra_counters = dso_local global [33280 x i8] zeroinitializer, section "__libfuzzer_extra_counters", align 16
@.str = private unnamed_addr constant [5 x i8] c"null\00", align 1
@_ZSt4cerr = external global %"class.std::basic_ostream", align 8
@.str.1 = private unnamed_addr constant [30 x i8] c"Error: Could not create file \00", align 1
@_ZSt4cout = external global %"class.std::basic_ostream", align 8
@.str.2 = private unnamed_addr constant [28 x i8] c"null data has been provided\00", align 1
@llvm.global_ctors = appending global [1 x { i32, ptr, ptr }] [{ i32, ptr, ptr } { i32 65535, ptr @_GLOBAL__sub_I_fuzz.cpp, ptr null }]

; Function Attrs: noinline uwtable
define internal void @__cxx_global_var_init() #0 section ".text.startup" {
entry:
  call void @_ZNSt8ios_base4InitC1Ev(ptr noundef nonnull align 1 dereferenceable(1) @_ZStL8__ioinit)
  %0 = call i32 @__cxa_atexit(ptr @_ZNSt8ios_base4InitD1Ev, ptr @_ZStL8__ioinit, ptr @__dso_handle) #3
  ret void
}

declare void @_ZNSt8ios_base4InitC1Ev(ptr noundef nonnull align 1 dereferenceable(1)) unnamed_addr #1

; Function Attrs: nounwind
declare void @_ZNSt8ios_base4InitD1Ev(ptr noundef nonnull align 1 dereferenceable(1)) unnamed_addr #2

; Function Attrs: nounwind
declare i32 @__cxa_atexit(ptr, ptr, ptr) #3

; Function Attrs: mustprogress noinline optnone uwtable
define dso_local void @_Z17constructFilePathRKNSt7__cxx1112basic_stringIcSt11char_traitsIcESaIcEEES6_(ptr dead_on_unwind noalias writable sret(%"class.std::__cxx11::basic_string") align 8 %agg.result, ptr noundef nonnull align 8 dereferenceable(32) %directory, ptr noundef nonnull align 8 dereferenceable(32) %filename) #4 personality ptr @__gxx_personality_v0 {
entry:
  %result.ptr = alloca ptr, align 8
  %directory.addr = alloca ptr, align 8
  %filename.addr = alloca ptr, align 8
  %dirPath = alloca %"class.std::filesystem::__cxx11::path", align 8
  %filePath = alloca %"class.std::filesystem::__cxx11::path", align 8
  %ref.tmp = alloca %"class.std::filesystem::__cxx11::path", align 8
  %exn.slot = alloca ptr, align 8
  %ehselector.slot = alloca i32, align 4
  store ptr %agg.result, ptr %result.ptr, align 8
  store ptr %directory, ptr %directory.addr, align 8
  store ptr %filename, ptr %filename.addr, align 8
  %0 = load ptr, ptr %directory.addr, align 8
  call void @_ZNSt10filesystem7__cxx114pathC2INSt7__cxx1112basic_stringIcSt11char_traitsIcESaIcEEES1_EERKT_NS1_6formatE(ptr noundef nonnull align 8 dereferenceable(40) %dirPath, ptr noundef nonnull align 8 dereferenceable(32) %0, i8 noundef zeroext 2)
  %1 = load ptr, ptr %filename.addr, align 8
  invoke void @_ZNSt10filesystem7__cxx114pathC2INSt7__cxx1112basic_stringIcSt11char_traitsIcESaIcEEES1_EERKT_NS1_6formatE(ptr noundef nonnull align 8 dereferenceable(40) %ref.tmp, ptr noundef nonnull align 8 dereferenceable(32) %1, i8 noundef zeroext 2)
          to label %invoke.cont unwind label %lpad

invoke.cont:                                      ; preds = %entry
  invoke void @_ZNSt10filesystem7__cxx11dvERKNS0_4pathES3_(ptr dead_on_unwind writable sret(%"class.std::filesystem::__cxx11::path") align 8 %filePath, ptr noundef nonnull align 8 dereferenceable(40) %dirPath, ptr noundef nonnull align 8 dereferenceable(40) %ref.tmp)
          to label %invoke.cont2 unwind label %lpad1

invoke.cont2:                                     ; preds = %invoke.cont
  call void @_ZNSt10filesystem7__cxx114pathD2Ev(ptr noundef nonnull align 8 dereferenceable(40) %ref.tmp) #3
  invoke void @_ZNKSt10filesystem7__cxx114path6stringEv(ptr dead_on_unwind writable sret(%"class.std::__cxx11::basic_string") align 8 %agg.result, ptr noundef nonnull align 8 dereferenceable(40) %filePath)
          to label %invoke.cont4 unwind label %lpad3

invoke.cont4:                                     ; preds = %invoke.cont2
  call void @_ZNSt10filesystem7__cxx114pathD2Ev(ptr noundef nonnull align 8 dereferenceable(40) %filePath) #3
  call void @_ZNSt10filesystem7__cxx114pathD2Ev(ptr noundef nonnull align 8 dereferenceable(40) %dirPath) #3
  ret void

lpad:                                             ; preds = %entry
  %2 = landingpad { ptr, i32 }
          cleanup
  %3 = extractvalue { ptr, i32 } %2, 0
  store ptr %3, ptr %exn.slot, align 8
  %4 = extractvalue { ptr, i32 } %2, 1
  store i32 %4, ptr %ehselector.slot, align 4
  br label %ehcleanup

lpad1:                                            ; preds = %invoke.cont
  %5 = landingpad { ptr, i32 }
          cleanup
  %6 = extractvalue { ptr, i32 } %5, 0
  store ptr %6, ptr %exn.slot, align 8
  %7 = extractvalue { ptr, i32 } %5, 1
  store i32 %7, ptr %ehselector.slot, align 4
  call void @_ZNSt10filesystem7__cxx114pathD2Ev(ptr noundef nonnull align 8 dereferenceable(40) %ref.tmp) #3
  br label %ehcleanup

lpad3:                                            ; preds = %invoke.cont2
  %8 = landingpad { ptr, i32 }
          cleanup
  %9 = extractvalue { ptr, i32 } %8, 0
  store ptr %9, ptr %exn.slot, align 8
  %10 = extractvalue { ptr, i32 } %8, 1
  store i32 %10, ptr %ehselector.slot, align 4
  call void @_ZNSt10filesystem7__cxx114pathD2Ev(ptr noundef nonnull align 8 dereferenceable(40) %filePath) #3
  br label %ehcleanup

ehcleanup:                                        ; preds = %lpad3, %lpad1, %lpad
  call void @_ZNSt10filesystem7__cxx114pathD2Ev(ptr noundef nonnull align 8 dereferenceable(40) %dirPath) #3
  br label %eh.resume

eh.resume:                                        ; preds = %ehcleanup
  %exn = load ptr, ptr %exn.slot, align 8
  %sel = load i32, ptr %ehselector.slot, align 4
  %lpad.val = insertvalue { ptr, i32 } poison, ptr %exn, 0
  %lpad.val5 = insertvalue { ptr, i32 } %lpad.val, i32 %sel, 1
  resume { ptr, i32 } %lpad.val5
}

; Function Attrs: mustprogress noinline optnone uwtable
define linkonce_odr dso_local void @_ZNSt10filesystem7__cxx114pathC2INSt7__cxx1112basic_stringIcSt11char_traitsIcESaIcEEES1_EERKT_NS1_6formatE(ptr noundef nonnull align 8 dereferenceable(40) %this, ptr noundef nonnull align 8 dereferenceable(32) %__source, i8 noundef zeroext %0) unnamed_addr #4 comdat align 2 personality ptr @__gxx_personality_v0 {
entry:
  %this.addr = alloca ptr, align 8
  %__source.addr = alloca ptr, align 8
  %.addr = alloca i8, align 1
  %ref.tmp = alloca %"class.std::basic_string_view", align 8
  %ref.tmp4 = alloca %"class.std::allocator", align 1
  %exn.slot = alloca ptr, align 8
  %ehselector.slot = alloca i32, align 4
  store ptr %this, ptr %this.addr, align 8
  store ptr %__source, ptr %__source.addr, align 8
  store i8 %0, ptr %.addr, align 1
  %this1 = load ptr, ptr %this.addr, align 8
  %_M_pathname = getelementptr inbounds nuw %"class.std::filesystem::__cxx11::path", ptr %this1, i32 0, i32 0
  %1 = load ptr, ptr %__source.addr, align 8
  %call = call noundef ptr @_ZNSt10filesystem7__cxx118__detail14_S_range_beginIcSt11char_traitsIcESaIcEEEPKT_RKNSt7__cxx1112basic_stringIS6_T0_T1_EE(ptr noundef nonnull align 8 dereferenceable(32) %1)
  %2 = load ptr, ptr %__source.addr, align 8
  %call2 = call noundef ptr @_ZNSt10filesystem7__cxx118__detail12_S_range_endIcSt11char_traitsIcESaIcEEEPKT_RKNSt7__cxx1112basic_stringIS6_T0_T1_EE(ptr noundef nonnull align 8 dereferenceable(32) %2)
  %call3 = call { i64, ptr } @_ZNSt10filesystem7__cxx114path10_S_convertEPKcS3_(ptr noundef %call, ptr noundef %call2)
  %3 = getelementptr inbounds nuw { i64, ptr }, ptr %ref.tmp, i32 0, i32 0
  %4 = extractvalue { i64, ptr } %call3, 0
  store i64 %4, ptr %3, align 8
  %5 = getelementptr inbounds nuw { i64, ptr }, ptr %ref.tmp, i32 0, i32 1
  %6 = extractvalue { i64, ptr } %call3, 1
  store ptr %6, ptr %5, align 8
  call void @_ZNSaIcEC1Ev(ptr noundef nonnull align 1 dereferenceable(1) %ref.tmp4) #3
  invoke void @_ZNSt7__cxx1112basic_stringIcSt11char_traitsIcESaIcEEC2ISt17basic_string_viewIcS2_EvEERKT_RKS3_(ptr noundef nonnull align 8 dereferenceable(32) %_M_pathname, ptr noundef nonnull align 8 dereferenceable(16) %ref.tmp, ptr noundef nonnull align 1 dereferenceable(1) %ref.tmp4)
          to label %invoke.cont unwind label %lpad

invoke.cont:                                      ; preds = %entry
  call void @_ZNSaIcED1Ev(ptr noundef nonnull align 1 dereferenceable(1) %ref.tmp4) #3
  %_M_cmpts = getelementptr inbounds nuw %"class.std::filesystem::__cxx11::path", ptr %this1, i32 0, i32 1
  invoke void @_ZNSt10filesystem7__cxx114path5_ListC1Ev(ptr noundef nonnull align 8 dereferenceable(8) %_M_cmpts)
          to label %invoke.cont6 unwind label %lpad5

invoke.cont6:                                     ; preds = %invoke.cont
  invoke void @_ZNSt10filesystem7__cxx114path14_M_split_cmptsEv(ptr noundef nonnull align 8 dereferenceable(40) %this1)
          to label %invoke.cont8 unwind label %lpad7

invoke.cont8:                                     ; preds = %invoke.cont6
  ret void

lpad:                                             ; preds = %entry
  %7 = landingpad { ptr, i32 }
          cleanup
  %8 = extractvalue { ptr, i32 } %7, 0
  store ptr %8, ptr %exn.slot, align 8
  %9 = extractvalue { ptr, i32 } %7, 1
  store i32 %9, ptr %ehselector.slot, align 4
  call void @_ZNSaIcED1Ev(ptr noundef nonnull align 1 dereferenceable(1) %ref.tmp4) #3
  br label %eh.resume

lpad5:                                            ; preds = %invoke.cont
  %10 = landingpad { ptr, i32 }
          cleanup
  %11 = extractvalue { ptr, i32 } %10, 0
  store ptr %11, ptr %exn.slot, align 8
  %12 = extractvalue { ptr, i32 } %10, 1
  store i32 %12, ptr %ehselector.slot, align 4
  br label %ehcleanup

lpad7:                                            ; preds = %invoke.cont6
  %13 = landingpad { ptr, i32 }
          cleanup
  %14 = extractvalue { ptr, i32 } %13, 0
  store ptr %14, ptr %exn.slot, align 8
  %15 = extractvalue { ptr, i32 } %13, 1
  store i32 %15, ptr %ehselector.slot, align 4
  call void @_ZNSt10filesystem7__cxx114path5_ListD2Ev(ptr noundef nonnull align 8 dereferenceable(8) %_M_cmpts) #3
  br label %ehcleanup

ehcleanup:                                        ; preds = %lpad7, %lpad5
  call void @_ZNSt7__cxx1112basic_stringIcSt11char_traitsIcESaIcEED1Ev(ptr noundef nonnull align 8 dereferenceable(32) %_M_pathname) #3
  br label %eh.resume

eh.resume:                                        ; preds = %ehcleanup, %lpad
  %exn = load ptr, ptr %exn.slot, align 8
  %sel = load i32, ptr %ehselector.slot, align 4
  %lpad.val = insertvalue { ptr, i32 } poison, ptr %exn, 0
  %lpad.val9 = insertvalue { ptr, i32 } %lpad.val, i32 %sel, 1
  resume { ptr, i32 } %lpad.val9
}

; Function Attrs: mustprogress noinline optnone uwtable
define linkonce_odr dso_local void @_ZNSt10filesystem7__cxx11dvERKNS0_4pathES3_(ptr dead_on_unwind noalias writable sret(%"class.std::filesystem::__cxx11::path") align 8 %agg.result, ptr noundef nonnull align 8 dereferenceable(40) %__lhs, ptr noundef nonnull align 8 dereferenceable(40) %__rhs) #4 comdat personality ptr @__gxx_personality_v0 {
entry:
  %result.ptr = alloca ptr, align 8
  %__lhs.addr = alloca ptr, align 8
  %__rhs.addr = alloca ptr, align 8
  %nrvo = alloca i1, align 1
  %exn.slot = alloca ptr, align 8
  %ehselector.slot = alloca i32, align 4
  store ptr %agg.result, ptr %result.ptr, align 8
  store ptr %__lhs, ptr %__lhs.addr, align 8
  store ptr %__rhs, ptr %__rhs.addr, align 8
  store i1 false, ptr %nrvo, align 1
  %0 = load ptr, ptr %__lhs.addr, align 8
  call void @_ZNSt10filesystem7__cxx114pathC2ERKS1_(ptr noundef nonnull align 8 dereferenceable(40) %agg.result, ptr noundef nonnull align 8 dereferenceable(40) %0)
  %1 = load ptr, ptr %__rhs.addr, align 8
  %call = invoke noundef nonnull align 8 dereferenceable(40) ptr @_ZNSt10filesystem7__cxx114pathdVERKS1_(ptr noundef nonnull align 8 dereferenceable(40) %agg.result, ptr noundef nonnull align 8 dereferenceable(40) %1)
          to label %invoke.cont unwind label %lpad

invoke.cont:                                      ; preds = %entry
  store i1 true, ptr %nrvo, align 1
  %nrvo.val = load i1, ptr %nrvo, align 1
  br i1 %nrvo.val, label %nrvo.skipdtor, label %nrvo.unused

lpad:                                             ; preds = %entry
  %2 = landingpad { ptr, i32 }
          cleanup
  %3 = extractvalue { ptr, i32 } %2, 0
  store ptr %3, ptr %exn.slot, align 8
  %4 = extractvalue { ptr, i32 } %2, 1
  store i32 %4, ptr %ehselector.slot, align 4
  call void @_ZNSt10filesystem7__cxx114pathD2Ev(ptr noundef nonnull align 8 dereferenceable(40) %agg.result) #3
  br label %eh.resume

nrvo.unused:                                      ; preds = %invoke.cont
  call void @_ZNSt10filesystem7__cxx114pathD2Ev(ptr noundef nonnull align 8 dereferenceable(40) %agg.result) #3
  br label %nrvo.skipdtor

nrvo.skipdtor:                                    ; preds = %nrvo.unused, %invoke.cont
  ret void

eh.resume:                                        ; preds = %lpad
  %exn = load ptr, ptr %exn.slot, align 8
  %sel = load i32, ptr %ehselector.slot, align 4
  %lpad.val = insertvalue { ptr, i32 } poison, ptr %exn, 0
  %lpad.val1 = insertvalue { ptr, i32 } %lpad.val, i32 %sel, 1
  resume { ptr, i32 } %lpad.val1
}

declare i32 @__gxx_personality_v0(...)

; Function Attrs: mustprogress noinline nounwind optnone uwtable
define linkonce_odr dso_local void @_ZNSt10filesystem7__cxx114pathD2Ev(ptr noundef nonnull align 8 dereferenceable(40) %this) unnamed_addr #5 comdat align 2 {
entry:
  %this.addr = alloca ptr, align 8
  store ptr %this, ptr %this.addr, align 8
  %this1 = load ptr, ptr %this.addr, align 8
  %_M_cmpts = getelementptr inbounds nuw %"class.std::filesystem::__cxx11::path", ptr %this1, i32 0, i32 1
  call void @_ZNSt10filesystem7__cxx114path5_ListD2Ev(ptr noundef nonnull align 8 dereferenceable(8) %_M_cmpts) #3
  %_M_pathname = getelementptr inbounds nuw %"class.std::filesystem::__cxx11::path", ptr %this1, i32 0, i32 0
  call void @_ZNSt7__cxx1112basic_stringIcSt11char_traitsIcESaIcEED1Ev(ptr noundef nonnull align 8 dereferenceable(32) %_M_pathname) #3
  ret void
}

; Function Attrs: mustprogress noinline optnone uwtable
define linkonce_odr dso_local void @_ZNKSt10filesystem7__cxx114path6stringEv(ptr dead_on_unwind noalias writable sret(%"class.std::__cxx11::basic_string") align 8 %agg.result, ptr noundef nonnull align 8 dereferenceable(40) %this) #4 comdat align 2 personality ptr @__gxx_personality_v0 {
entry:
  %result.ptr = alloca ptr, align 8
  %this.addr = alloca ptr, align 8
  %ref.tmp = alloca %"class.std::allocator", align 1
  %exn.slot = alloca ptr, align 8
  %ehselector.slot = alloca i32, align 4
  store ptr %agg.result, ptr %result.ptr, align 8
  store ptr %this, ptr %this.addr, align 8
  %this1 = load ptr, ptr %this.addr, align 8
  call void @_ZNSaIcEC1Ev(ptr noundef nonnull align 1 dereferenceable(1) %ref.tmp) #3
  invoke void @_ZNKSt10filesystem7__cxx114path6stringIcSt11char_traitsIcESaIcEEENSt7__cxx1112basic_stringIT_T0_T1_EERKSA_(ptr dead_on_unwind writable sret(%"class.std::__cxx11::basic_string") align 8 %agg.result, ptr noundef nonnull align 8 dereferenceable(40) %this1, ptr noundef nonnull align 1 dereferenceable(1) %ref.tmp)
          to label %invoke.cont unwind label %lpad

invoke.cont:                                      ; preds = %entry
  call void @_ZNSaIcED1Ev(ptr noundef nonnull align 1 dereferenceable(1) %ref.tmp) #3
  ret void

lpad:                                             ; preds = %entry
  %0 = landingpad { ptr, i32 }
          cleanup
  %1 = extractvalue { ptr, i32 } %0, 0
  store ptr %1, ptr %exn.slot, align 8
  %2 = extractvalue { ptr, i32 } %0, 1
  store i32 %2, ptr %ehselector.slot, align 4
  call void @_ZNSaIcED1Ev(ptr noundef nonnull align 1 dereferenceable(1) %ref.tmp) #3
  br label %eh.resume

eh.resume:                                        ; preds = %lpad
  %exn = load ptr, ptr %exn.slot, align 8
  %sel = load i32, ptr %ehselector.slot, align 4
  %lpad.val = insertvalue { ptr, i32 } poison, ptr %exn, 0
  %lpad.val2 = insertvalue { ptr, i32 } %lpad.val, i32 %sel, 1
  resume { ptr, i32 } %lpad.val2
}

; Function Attrs: mustprogress noinline optnone uwtable
define dso_local void @_Z9byteToHexB5cxx11h(ptr dead_on_unwind noalias writable sret(%"class.std::__cxx11::basic_string") align 8 %agg.result, i8 noundef zeroext %byte) #4 personality ptr @__gxx_personality_v0 {
entry:
  %result.ptr = alloca ptr, align 8
  %byte.addr = alloca i8, align 1
  %oss = alloca %"class.std::__cxx11::basic_ostringstream", align 8
  %agg.tmp = alloca %"struct.std::_Setw", align 4
  %exn.slot = alloca ptr, align 8
  %ehselector.slot = alloca i32, align 4
  %agg.tmp4 = alloca %"struct.std::_Setfill", align 1
  store ptr %agg.result, ptr %result.ptr, align 8
  store i8 %byte, ptr %byte.addr, align 1
  call void @_ZNSt7__cxx1119basic_ostringstreamIcSt11char_traitsIcESaIcEEC1Ev(ptr noundef nonnull align 8 dereferenceable(112) %oss)
  %call = invoke i32 @_ZSt4setwi(i32 noundef 2)
          to label %invoke.cont unwind label %lpad

invoke.cont:                                      ; preds = %entry
  %coerce.dive = getelementptr inbounds nuw %"struct.std::_Setw", ptr %agg.tmp, i32 0, i32 0
  store i32 %call, ptr %coerce.dive, align 4
  %coerce.dive1 = getelementptr inbounds nuw %"struct.std::_Setw", ptr %agg.tmp, i32 0, i32 0
  %0 = load i32, ptr %coerce.dive1, align 4
  %call3 = invoke noundef nonnull align 8 dereferenceable(8) ptr @_ZStlsIcSt11char_traitsIcEERSt13basic_ostreamIT_T0_ES6_St5_Setw(ptr noundef nonnull align 8 dereferenceable(8) %oss, i32 %0)
          to label %invoke.cont2 unwind label %lpad

invoke.cont2:                                     ; preds = %invoke.cont
  %call6 = invoke i8 @_ZSt7setfillIcESt8_SetfillIT_ES1_(i8 noundef signext 48)
          to label %invoke.cont5 unwind label %lpad

invoke.cont5:                                     ; preds = %invoke.cont2
  %coerce.dive7 = getelementptr inbounds nuw %"struct.std::_Setfill", ptr %agg.tmp4, i32 0, i32 0
  store i8 %call6, ptr %coerce.dive7, align 1
  %coerce.dive8 = getelementptr inbounds nuw %"struct.std::_Setfill", ptr %agg.tmp4, i32 0, i32 0
  %1 = load i8, ptr %coerce.dive8, align 1
  %call10 = invoke noundef nonnull align 8 dereferenceable(8) ptr @_ZStlsIcSt11char_traitsIcEERSt13basic_ostreamIT_T0_ES6_St8_SetfillIS3_E(ptr noundef nonnull align 8 dereferenceable(8) %call3, i8 %1)
          to label %invoke.cont9 unwind label %lpad

invoke.cont9:                                     ; preds = %invoke.cont5
  %call12 = invoke noundef nonnull align 8 dereferenceable(8) ptr @_ZNSolsEPFRSt8ios_baseS0_E(ptr noundef nonnull align 8 dereferenceable(8) %call10, ptr noundef @_ZSt3hexRSt8ios_base)
          to label %invoke.cont11 unwind label %lpad

invoke.cont11:                                    ; preds = %invoke.cont9
  %2 = load i8, ptr %byte.addr, align 1
  %conv = zext i8 %2 to i32
  %call14 = invoke noundef nonnull align 8 dereferenceable(8) ptr @_ZNSolsEi(ptr noundef nonnull align 8 dereferenceable(8) %call12, i32 noundef %conv)
          to label %invoke.cont13 unwind label %lpad

invoke.cont13:                                    ; preds = %invoke.cont11
  invoke void @_ZNKSt7__cxx1119basic_ostringstreamIcSt11char_traitsIcESaIcEE3strEv(ptr dead_on_unwind writable sret(%"class.std::__cxx11::basic_string") align 8 %agg.result, ptr noundef nonnull align 8 dereferenceable(112) %oss)
          to label %invoke.cont15 unwind label %lpad

invoke.cont15:                                    ; preds = %invoke.cont13
  call void @_ZNSt7__cxx1119basic_ostringstreamIcSt11char_traitsIcESaIcEED1Ev(ptr noundef nonnull align 8 dereferenceable(112) %oss) #3
  ret void

lpad:                                             ; preds = %invoke.cont13, %invoke.cont11, %invoke.cont9, %invoke.cont5, %invoke.cont2, %invoke.cont, %entry
  %3 = landingpad { ptr, i32 }
          cleanup
  %4 = extractvalue { ptr, i32 } %3, 0
  store ptr %4, ptr %exn.slot, align 8
  %5 = extractvalue { ptr, i32 } %3, 1
  store i32 %5, ptr %ehselector.slot, align 4
  call void @_ZNSt7__cxx1119basic_ostringstreamIcSt11char_traitsIcESaIcEED1Ev(ptr noundef nonnull align 8 dereferenceable(112) %oss) #3
  br label %eh.resume

eh.resume:                                        ; preds = %lpad
  %exn = load ptr, ptr %exn.slot, align 8
  %sel = load i32, ptr %ehselector.slot, align 4
  %lpad.val = insertvalue { ptr, i32 } poison, ptr %exn, 0
  %lpad.val16 = insertvalue { ptr, i32 } %lpad.val, i32 %sel, 1
  resume { ptr, i32 } %lpad.val16
}

declare void @_ZNSt7__cxx1119basic_ostringstreamIcSt11char_traitsIcESaIcEEC1Ev(ptr noundef nonnull align 8 dereferenceable(112)) unnamed_addr #1

declare noundef nonnull align 8 dereferenceable(8) ptr @_ZStlsIcSt11char_traitsIcEERSt13basic_ostreamIT_T0_ES6_St8_SetfillIS3_E(ptr noundef nonnull align 8 dereferenceable(8), i8) #1

declare noundef nonnull align 8 dereferenceable(8) ptr @_ZStlsIcSt11char_traitsIcEERSt13basic_ostreamIT_T0_ES6_St5_Setw(ptr noundef nonnull align 8 dereferenceable(8), i32) #1

; Function Attrs: mustprogress noinline nounwind optnone uwtable
define linkonce_odr dso_local i32 @_ZSt4setwi(i32 noundef %__n) #5 comdat {
entry:
  %retval = alloca %"struct.std::_Setw", align 4
  %__n.addr = alloca i32, align 4
  store i32 %__n, ptr %__n.addr, align 4
  %_M_n = getelementptr inbounds nuw %"struct.std::_Setw", ptr %retval, i32 0, i32 0
  %0 = load i32, ptr %__n.addr, align 4
  store i32 %0, ptr %_M_n, align 4
  %coerce.dive = getelementptr inbounds nuw %"struct.std::_Setw", ptr %retval, i32 0, i32 0
  %1 = load i32, ptr %coerce.dive, align 4
  ret i32 %1
}

; Function Attrs: mustprogress noinline nounwind optnone uwtable
define linkonce_odr dso_local i8 @_ZSt7setfillIcESt8_SetfillIT_ES1_(i8 noundef signext %__c) #5 comdat {
entry:
  %retval = alloca %"struct.std::_Setfill", align 1
  %__c.addr = alloca i8, align 1
  store i8 %__c, ptr %__c.addr, align 1
  %_M_c = getelementptr inbounds nuw %"struct.std::_Setfill", ptr %retval, i32 0, i32 0
  %0 = load i8, ptr %__c.addr, align 1
  store i8 %0, ptr %_M_c, align 1
  %coerce.dive = getelementptr inbounds nuw %"struct.std::_Setfill", ptr %retval, i32 0, i32 0
  %1 = load i8, ptr %coerce.dive, align 1
  ret i8 %1
}

declare noundef nonnull align 8 dereferenceable(8) ptr @_ZNSolsEPFRSt8ios_baseS0_E(ptr noundef nonnull align 8 dereferenceable(8), ptr noundef) #1

; Function Attrs: mustprogress noinline optnone uwtable
define linkonce_odr dso_local noundef nonnull align 8 dereferenceable(216) ptr @_ZSt3hexRSt8ios_base(ptr noundef nonnull align 8 dereferenceable(216) %__base) #4 comdat {
entry:
  %__base.addr = alloca ptr, align 8
  store ptr %__base, ptr %__base.addr, align 8
  %0 = load ptr, ptr %__base.addr, align 8
  %call = call noundef i32 @_ZNSt8ios_base4setfESt13_Ios_FmtflagsS0_(ptr noundef nonnull align 8 dereferenceable(216) %0, i32 noundef 8, i32 noundef 74)
  %1 = load ptr, ptr %__base.addr, align 8
  ret ptr %1
}

declare noundef nonnull align 8 dereferenceable(8) ptr @_ZNSolsEi(ptr noundef nonnull align 8 dereferenceable(8), i32 noundef) #1

declare void @_ZNKSt7__cxx1119basic_ostringstreamIcSt11char_traitsIcESaIcEE3strEv(ptr dead_on_unwind writable sret(%"class.std::__cxx11::basic_string") align 8, ptr noundef nonnull align 8 dereferenceable(112)) #1

; Function Attrs: nounwind
declare void @_ZNSt7__cxx1119basic_ostringstreamIcSt11char_traitsIcESaIcEED1Ev(ptr noundef nonnull align 8 dereferenceable(112)) unnamed_addr #2

; Function Attrs: mustprogress noinline optnone uwtable
define dso_local void @_Z15saveBytesToFilePKhmNSt7__cxx1112basic_stringIcSt11char_traitsIcESaIcEEE(ptr noundef %data, i64 noundef %size, ptr noundef %path) #4 personality ptr @__gxx_personality_v0 {
entry:
  %data.addr = alloca ptr, align 8
  %size.addr = alloca i64, align 8
  %path.indirect_addr = alloca ptr, align 8
  %isAllZeros = alloca i8, align 1
  %i = alloca i64, align 8
  %filename = alloca %"class.std::__cxx11::basic_string", align 8
  %exn.slot = alloca ptr, align 8
  %ehselector.slot = alloca i32, align 4
  %filenameStream = alloca %"class.std::__cxx11::basic_ostringstream", align 8
  %i4 = alloca i64, align 8
  %ref.tmp = alloca %"class.std::__cxx11::basic_string", align 8
  %ref.tmp17 = alloca %"class.std::__cxx11::basic_string", align 8
  %outFile = alloca %"class.std::basic_ofstream", align 8
  %ref.tmp22 = alloca %"class.std::__cxx11::basic_string", align 8
  %cleanup.dest.slot = alloca i32, align 4
  store ptr %data, ptr %data.addr, align 8
  store i64 %size, ptr %size.addr, align 8
  store ptr %path, ptr %path.indirect_addr, align 8
  store i8 1, ptr %isAllZeros, align 1
  store i64 0, ptr %i, align 8
  br label %for.cond

for.cond:                                         ; preds = %for.inc, %entry
  %0 = load i64, ptr %i, align 8
  %1 = load i64, ptr %size.addr, align 8
  %cmp = icmp ult i64 %0, %1
  br i1 %cmp, label %for.body, label %for.end

for.body:                                         ; preds = %for.cond
  %2 = load ptr, ptr %data.addr, align 8
  %3 = load i64, ptr %i, align 8
  %arrayidx = getelementptr inbounds nuw i8, ptr %2, i64 %3
  %4 = load i8, ptr %arrayidx, align 1
  %conv = zext i8 %4 to i32
  %cmp1 = icmp ne i32 %conv, 0
  br i1 %cmp1, label %if.then, label %if.end

if.then:                                          ; preds = %for.body
  store i8 0, ptr %isAllZeros, align 1
  br label %for.end

if.end:                                           ; preds = %for.body
  br label %for.inc

for.inc:                                          ; preds = %if.end
  %5 = load i64, ptr %i, align 8
  %inc = add i64 %5, 1
  store i64 %inc, ptr %i, align 8
  br label %for.cond, !llvm.loop !6

for.end:                                          ; preds = %if.then, %for.cond
  call void @_ZNSt7__cxx1112basic_stringIcSt11char_traitsIcESaIcEEC1Ev(ptr noundef nonnull align 8 dereferenceable(32) %filename) #3
  %6 = load i8, ptr %isAllZeros, align 1
  %loadedv = trunc i8 %6 to i1
  br i1 %loadedv, label %if.then2, label %if.else

if.then2:                                         ; preds = %for.end
  %call = invoke noundef nonnull align 8 dereferenceable(32) ptr @_ZNSt7__cxx1112basic_stringIcSt11char_traitsIcESaIcEEaSEPKc(ptr noundef nonnull align 8 dereferenceable(32) %filename, ptr noundef @.str)
          to label %invoke.cont unwind label %lpad

invoke.cont:                                      ; preds = %if.then2
  br label %if.end20

lpad:                                             ; preds = %if.end20, %if.else, %if.then2
  %7 = landingpad { ptr, i32 }
          cleanup
  %8 = extractvalue { ptr, i32 } %7, 0
  store ptr %8, ptr %exn.slot, align 8
  %9 = extractvalue { ptr, i32 } %7, 1
  store i32 %9, ptr %ehselector.slot, align 4
  br label %ehcleanup43

if.else:                                          ; preds = %for.end
  invoke void @_ZNSt7__cxx1119basic_ostringstreamIcSt11char_traitsIcESaIcEEC1Ev(ptr noundef nonnull align 8 dereferenceable(112) %filenameStream)
          to label %invoke.cont3 unwind label %lpad

invoke.cont3:                                     ; preds = %if.else
  store i64 0, ptr %i4, align 8
  br label %for.cond5

for.cond5:                                        ; preds = %for.inc14, %invoke.cont3
  %10 = load i64, ptr %i4, align 8
  %11 = load i64, ptr %size.addr, align 8
  %cmp6 = icmp ult i64 %10, %11
  br i1 %cmp6, label %for.body7, label %for.end16

for.body7:                                        ; preds = %for.cond5
  %12 = load ptr, ptr %data.addr, align 8
  %13 = load i64, ptr %i4, align 8
  %arrayidx8 = getelementptr inbounds nuw i8, ptr %12, i64 %13
  %14 = load i8, ptr %arrayidx8, align 1
  invoke void @_Z9byteToHexB5cxx11h(ptr dead_on_unwind writable sret(%"class.std::__cxx11::basic_string") align 8 %ref.tmp, i8 noundef zeroext %14)
          to label %invoke.cont10 unwind label %lpad9

invoke.cont10:                                    ; preds = %for.body7
  %call13 = invoke noundef nonnull align 8 dereferenceable(8) ptr @_ZStlsIcSt11char_traitsIcESaIcEERSt13basic_ostreamIT_T0_ES7_RKNSt7__cxx1112basic_stringIS4_S5_T1_EE(ptr noundef nonnull align 8 dereferenceable(8) %filenameStream, ptr noundef nonnull align 8 dereferenceable(32) %ref.tmp)
          to label %invoke.cont12 unwind label %lpad11

invoke.cont12:                                    ; preds = %invoke.cont10
  call void @_ZNSt7__cxx1112basic_stringIcSt11char_traitsIcESaIcEED1Ev(ptr noundef nonnull align 8 dereferenceable(32) %ref.tmp) #3
  br label %for.inc14

for.inc14:                                        ; preds = %invoke.cont12
  %15 = load i64, ptr %i4, align 8
  %inc15 = add i64 %15, 1
  store i64 %inc15, ptr %i4, align 8
  br label %for.cond5, !llvm.loop !8

lpad9:                                            ; preds = %for.end16, %for.body7
  %16 = landingpad { ptr, i32 }
          cleanup
  %17 = extractvalue { ptr, i32 } %16, 0
  store ptr %17, ptr %exn.slot, align 8
  %18 = extractvalue { ptr, i32 } %16, 1
  store i32 %18, ptr %ehselector.slot, align 4
  br label %ehcleanup

lpad11:                                           ; preds = %invoke.cont10
  %19 = landingpad { ptr, i32 }
          cleanup
  %20 = extractvalue { ptr, i32 } %19, 0
  store ptr %20, ptr %exn.slot, align 8
  %21 = extractvalue { ptr, i32 } %19, 1
  store i32 %21, ptr %ehselector.slot, align 4
  call void @_ZNSt7__cxx1112basic_stringIcSt11char_traitsIcESaIcEED1Ev(ptr noundef nonnull align 8 dereferenceable(32) %ref.tmp) #3
  br label %ehcleanup

for.end16:                                        ; preds = %for.cond5
  invoke void @_ZNKSt7__cxx1119basic_ostringstreamIcSt11char_traitsIcESaIcEE3strEv(ptr dead_on_unwind writable sret(%"class.std::__cxx11::basic_string") align 8 %ref.tmp17, ptr noundef nonnull align 8 dereferenceable(112) %filenameStream)
          to label %invoke.cont18 unwind label %lpad9

invoke.cont18:                                    ; preds = %for.end16
  %call19 = call noundef nonnull align 8 dereferenceable(32) ptr @_ZNSt7__cxx1112basic_stringIcSt11char_traitsIcESaIcEEaSEOS4_(ptr noundef nonnull align 8 dereferenceable(32) %filename, ptr noundef nonnull align 8 dereferenceable(32) %ref.tmp17) #3
  call void @_ZNSt7__cxx1112basic_stringIcSt11char_traitsIcESaIcEED1Ev(ptr noundef nonnull align 8 dereferenceable(32) %ref.tmp17) #3
  call void @_ZNSt7__cxx1119basic_ostringstreamIcSt11char_traitsIcESaIcEED1Ev(ptr noundef nonnull align 8 dereferenceable(112) %filenameStream) #3
  br label %if.end20

ehcleanup:                                        ; preds = %lpad11, %lpad9
  call void @_ZNSt7__cxx1119basic_ostringstreamIcSt11char_traitsIcESaIcEED1Ev(ptr noundef nonnull align 8 dereferenceable(112) %filenameStream) #3
  br label %ehcleanup43

if.end20:                                         ; preds = %invoke.cont18, %invoke.cont
  invoke void @_ZNSt14basic_ofstreamIcSt11char_traitsIcEEC1Ev(ptr noundef nonnull align 8 dereferenceable(248) %outFile)
          to label %invoke.cont21 unwind label %lpad

invoke.cont21:                                    ; preds = %if.end20
  invoke void @_Z17constructFilePathRKNSt7__cxx1112basic_stringIcSt11char_traitsIcESaIcEEES6_(ptr dead_on_unwind writable sret(%"class.std::__cxx11::basic_string") align 8 %ref.tmp22, ptr noundef nonnull align 8 dereferenceable(32) %path, ptr noundef nonnull align 8 dereferenceable(32) %filename)
          to label %invoke.cont24 unwind label %lpad23

invoke.cont24:                                    ; preds = %invoke.cont21
  invoke void @_ZNSt14basic_ofstreamIcSt11char_traitsIcEE4openERKNSt7__cxx1112basic_stringIcS1_SaIcEEESt13_Ios_Openmode(ptr noundef nonnull align 8 dereferenceable(248) %outFile, ptr noundef nonnull align 8 dereferenceable(32) %ref.tmp22, i32 noundef 16)
          to label %invoke.cont26 unwind label %lpad25

invoke.cont26:                                    ; preds = %invoke.cont24
  call void @_ZNSt7__cxx1112basic_stringIcSt11char_traitsIcESaIcEED1Ev(ptr noundef nonnull align 8 dereferenceable(32) %ref.tmp22) #3
  %vtable = load ptr, ptr %outFile, align 8
  %vbase.offset.ptr = getelementptr i8, ptr %vtable, i64 -24
  %vbase.offset = load i64, ptr %vbase.offset.ptr, align 8
  %add.ptr = getelementptr inbounds i8, ptr %outFile, i64 %vbase.offset
  %call29 = invoke noundef zeroext i1 @_ZNKSt9basic_iosIcSt11char_traitsIcEEntEv(ptr noundef nonnull align 8 dereferenceable(264) %add.ptr)
          to label %invoke.cont28 unwind label %lpad23

invoke.cont28:                                    ; preds = %invoke.cont26
  br i1 %call29, label %if.then32, label %lor.lhs.false

lor.lhs.false:                                    ; preds = %invoke.cont28
  %call31 = invoke noundef zeroext i1 @_ZNSt14basic_ofstreamIcSt11char_traitsIcEE7is_openEv(ptr noundef nonnull align 8 dereferenceable(248) %outFile)
          to label %invoke.cont30 unwind label %lpad23

invoke.cont30:                                    ; preds = %lor.lhs.false
  br i1 %call31, label %if.end39, label %if.then32

if.then32:                                        ; preds = %invoke.cont30, %invoke.cont28
  %call34 = invoke noundef nonnull align 8 dereferenceable(8) ptr @_ZStlsISt11char_traitsIcEERSt13basic_ostreamIcT_ES5_PKc(ptr noundef nonnull align 8 dereferenceable(8) @_ZSt4cerr, ptr noundef @.str.1)
          to label %invoke.cont33 unwind label %lpad23

invoke.cont33:                                    ; preds = %if.then32
  %call36 = invoke noundef nonnull align 8 dereferenceable(8) ptr @_ZStlsIcSt11char_traitsIcESaIcEERSt13basic_ostreamIT_T0_ES7_RKNSt7__cxx1112basic_stringIS4_S5_T1_EE(ptr noundef nonnull align 8 dereferenceable(8) %call34, ptr noundef nonnull align 8 dereferenceable(32) %filename)
          to label %invoke.cont35 unwind label %lpad23

invoke.cont35:                                    ; preds = %invoke.cont33
  %call38 = invoke noundef nonnull align 8 dereferenceable(8) ptr @_ZNSolsEPFRSoS_E(ptr noundef nonnull align 8 dereferenceable(8) %call36, ptr noundef @_ZSt4endlIcSt11char_traitsIcEERSt13basic_ostreamIT_T0_ES6_)
          to label %invoke.cont37 unwind label %lpad23

invoke.cont37:                                    ; preds = %invoke.cont35
  store i32 1, ptr %cleanup.dest.slot, align 4
  br label %cleanup

lpad23:                                           ; preds = %if.end39, %invoke.cont35, %invoke.cont33, %if.then32, %lor.lhs.false, %invoke.cont26, %invoke.cont21
  %22 = landingpad { ptr, i32 }
          cleanup
  %23 = extractvalue { ptr, i32 } %22, 0
  store ptr %23, ptr %exn.slot, align 8
  %24 = extractvalue { ptr, i32 } %22, 1
  store i32 %24, ptr %ehselector.slot, align 4
  br label %ehcleanup41

lpad25:                                           ; preds = %invoke.cont24
  %25 = landingpad { ptr, i32 }
          cleanup
  %26 = extractvalue { ptr, i32 } %25, 0
  store ptr %26, ptr %exn.slot, align 8
  %27 = extractvalue { ptr, i32 } %25, 1
  store i32 %27, ptr %ehselector.slot, align 4
  call void @_ZNSt7__cxx1112basic_stringIcSt11char_traitsIcESaIcEED1Ev(ptr noundef nonnull align 8 dereferenceable(32) %ref.tmp22) #3
  br label %ehcleanup41

if.end39:                                         ; preds = %invoke.cont30
  invoke void @_ZNSt14basic_ofstreamIcSt11char_traitsIcEE5closeEv(ptr noundef nonnull align 8 dereferenceable(248) %outFile)
          to label %invoke.cont40 unwind label %lpad23

invoke.cont40:                                    ; preds = %if.end39
  store i32 0, ptr %cleanup.dest.slot, align 4
  br label %cleanup

cleanup:                                          ; preds = %invoke.cont40, %invoke.cont37
  call void @_ZNSt14basic_ofstreamIcSt11char_traitsIcEED1Ev(ptr noundef nonnull align 8 dereferenceable(248) %outFile) #3
  call void @_ZNSt7__cxx1112basic_stringIcSt11char_traitsIcESaIcEED1Ev(ptr noundef nonnull align 8 dereferenceable(32) %filename) #3
  %cleanup.dest = load i32, ptr %cleanup.dest.slot, align 4
  switch i32 %cleanup.dest, label %unreachable [
    i32 0, label %cleanup.cont
    i32 1, label %cleanup.cont
  ]

cleanup.cont:                                     ; preds = %cleanup, %cleanup
  ret void

ehcleanup41:                                      ; preds = %lpad25, %lpad23
  call void @_ZNSt14basic_ofstreamIcSt11char_traitsIcEED1Ev(ptr noundef nonnull align 8 dereferenceable(248) %outFile) #3
  br label %ehcleanup43

ehcleanup43:                                      ; preds = %ehcleanup41, %ehcleanup, %lpad
  call void @_ZNSt7__cxx1112basic_stringIcSt11char_traitsIcESaIcEED1Ev(ptr noundef nonnull align 8 dereferenceable(32) %filename) #3
  br label %eh.resume

eh.resume:                                        ; preds = %ehcleanup43
  %exn = load ptr, ptr %exn.slot, align 8
  %sel = load i32, ptr %ehselector.slot, align 4
  %lpad.val = insertvalue { ptr, i32 } poison, ptr %exn, 0
  %lpad.val44 = insertvalue { ptr, i32 } %lpad.val, i32 %sel, 1
  resume { ptr, i32 } %lpad.val44

unreachable:                                      ; preds = %cleanup
  unreachable
}

; Function Attrs: nounwind
declare void @_ZNSt7__cxx1112basic_stringIcSt11char_traitsIcESaIcEEC1Ev(ptr noundef nonnull align 8 dereferenceable(32)) unnamed_addr #2

declare noundef nonnull align 8 dereferenceable(32) ptr @_ZNSt7__cxx1112basic_stringIcSt11char_traitsIcESaIcEEaSEPKc(ptr noundef nonnull align 8 dereferenceable(32), ptr noundef) #1

declare noundef nonnull align 8 dereferenceable(8) ptr @_ZStlsIcSt11char_traitsIcESaIcEERSt13basic_ostreamIT_T0_ES7_RKNSt7__cxx1112basic_stringIS4_S5_T1_EE(ptr noundef nonnull align 8 dereferenceable(8), ptr noundef nonnull align 8 dereferenceable(32)) #1

; Function Attrs: nounwind
declare void @_ZNSt7__cxx1112basic_stringIcSt11char_traitsIcESaIcEED1Ev(ptr noundef nonnull align 8 dereferenceable(32)) unnamed_addr #2

; Function Attrs: nounwind
declare noundef nonnull align 8 dereferenceable(32) ptr @_ZNSt7__cxx1112basic_stringIcSt11char_traitsIcESaIcEEaSEOS4_(ptr noundef nonnull align 8 dereferenceable(32), ptr noundef nonnull align 8 dereferenceable(32)) #2

declare void @_ZNSt14basic_ofstreamIcSt11char_traitsIcEEC1Ev(ptr noundef nonnull align 8 dereferenceable(248)) unnamed_addr #1

declare void @_ZNSt14basic_ofstreamIcSt11char_traitsIcEE4openERKNSt7__cxx1112basic_stringIcS1_SaIcEEESt13_Ios_Openmode(ptr noundef nonnull align 8 dereferenceable(248), ptr noundef nonnull align 8 dereferenceable(32), i32 noundef) #1

declare noundef zeroext i1 @_ZNKSt9basic_iosIcSt11char_traitsIcEEntEv(ptr noundef nonnull align 8 dereferenceable(264)) #1

declare noundef zeroext i1 @_ZNSt14basic_ofstreamIcSt11char_traitsIcEE7is_openEv(ptr noundef nonnull align 8 dereferenceable(248)) #1

declare noundef nonnull align 8 dereferenceable(8) ptr @_ZStlsISt11char_traitsIcEERSt13basic_ostreamIcT_ES5_PKc(ptr noundef nonnull align 8 dereferenceable(8), ptr noundef) #1

declare noundef nonnull align 8 dereferenceable(8) ptr @_ZNSolsEPFRSoS_E(ptr noundef nonnull align 8 dereferenceable(8), ptr noundef) #1

declare noundef nonnull align 8 dereferenceable(8) ptr @_ZSt4endlIcSt11char_traitsIcEERSt13basic_ostreamIT_T0_ES6_(ptr noundef nonnull align 8 dereferenceable(8)) #1

declare void @_ZNSt14basic_ofstreamIcSt11char_traitsIcEE5closeEv(ptr noundef nonnull align 8 dereferenceable(248)) #1

; Function Attrs: nounwind
declare void @_ZNSt14basic_ofstreamIcSt11char_traitsIcEED1Ev(ptr noundef nonnull align 8 dereferenceable(248)) unnamed_addr #2

; Function Attrs: mustprogress noinline nounwind optnone uwtable
define dso_local noundef i64 @_Z16my_asm_factoriali(i32 noundef %n) #5 {
entry:
  %n.addr = alloca i32, align 4
  %result = alloca i64, align 8
  store i32 %n, ptr %n.addr, align 4
  %0 = load i32, ptr %n.addr, align 4
  %1 = call i64 asm "loop_start:mul %rdi;dec %rdi;jg loop_start;end:mov %rax, $0;", "=r,r,~{rax},~{rdi},~{dirflag},~{fpsr},~{flags}"(i32 %0) #8, !srcloc !9
  store i64 %1, ptr %result, align 8
  %2 = load i64, ptr %result, align 8
  ret i64 %2
}

; Function Attrs: mustprogress noinline optnone uwtable
define dso_local i32 @LLVMFuzzerTestOneInput(ptr noundef %data, i64 noundef %size) #4 {
entry:
  %retval = alloca i32, align 4
  %data.addr = alloca ptr, align 8
  %size.addr = alloca i64, align 8
  store ptr %data, ptr %data.addr, align 8
  store i64 %size, ptr %size.addr, align 8
  %0 = load ptr, ptr %data.addr, align 8
  %cmp = icmp eq ptr %0, null
  br i1 %cmp, label %if.then, label %if.end

if.then:                                          ; preds = %entry
  %call = call noundef nonnull align 8 dereferenceable(8) ptr @_ZStlsISt11char_traitsIcEERSt13basic_ostreamIcT_ES5_PKc(ptr noundef nonnull align 8 dereferenceable(8) @_ZSt4cout, ptr noundef @.str.2)
  %call1 = call noundef nonnull align 8 dereferenceable(8) ptr @_ZNSolsEPFRSoS_E(ptr noundef nonnull align 8 dereferenceable(8) %call, ptr noundef @_ZSt4endlIcSt11char_traitsIcEERSt13basic_ostreamIT_T0_ES6_)
  store i32 0, ptr %retval, align 4
  br label %return

if.end:                                           ; preds = %entry
  %1 = load i64, ptr %size.addr, align 8
  %cmp2 = icmp ult i64 %1, 64
  br i1 %cmp2, label %if.then3, label %if.end4

if.then3:                                         ; preds = %if.end
  store i32 0, ptr %retval, align 4
  br label %return

if.end4:                                          ; preds = %if.end
  store i32 0, ptr %retval, align 4
  br label %return

return:                                           ; preds = %if.end4, %if.then3, %if.then
  %2 = load i32, ptr %retval, align 4
  ret i32 %2
}

; Function Attrs: mustprogress noinline optnone uwtable
define linkonce_odr dso_local void @_ZNSt10filesystem7__cxx114pathC2ERKS1_(ptr noundef nonnull align 8 dereferenceable(40) %this, ptr noundef nonnull align 8 dereferenceable(40) %__p) unnamed_addr #4 comdat align 2 personality ptr @__gxx_personality_v0 {
entry:
  %this.addr = alloca ptr, align 8
  %__p.addr = alloca ptr, align 8
  %exn.slot = alloca ptr, align 8
  %ehselector.slot = alloca i32, align 4
  store ptr %this, ptr %this.addr, align 8
  store ptr %__p, ptr %__p.addr, align 8
  %this1 = load ptr, ptr %this.addr, align 8
  %_M_pathname = getelementptr inbounds nuw %"class.std::filesystem::__cxx11::path", ptr %this1, i32 0, i32 0
  %0 = load ptr, ptr %__p.addr, align 8
  %_M_pathname2 = getelementptr inbounds nuw %"class.std::filesystem::__cxx11::path", ptr %0, i32 0, i32 0
  call void @_ZNSt7__cxx1112basic_stringIcSt11char_traitsIcESaIcEEC1ERKS4_(ptr noundef nonnull align 8 dereferenceable(32) %_M_pathname, ptr noundef nonnull align 8 dereferenceable(32) %_M_pathname2)
  %_M_cmpts = getelementptr inbounds nuw %"class.std::filesystem::__cxx11::path", ptr %this1, i32 0, i32 1
  %1 = load ptr, ptr %__p.addr, align 8
  %_M_cmpts3 = getelementptr inbounds nuw %"class.std::filesystem::__cxx11::path", ptr %1, i32 0, i32 1
  invoke void @_ZNSt10filesystem7__cxx114path5_ListC1ERKS2_(ptr noundef nonnull align 8 dereferenceable(8) %_M_cmpts, ptr noundef nonnull align 8 dereferenceable(8) %_M_cmpts3)
          to label %invoke.cont unwind label %lpad

invoke.cont:                                      ; preds = %entry
  ret void

lpad:                                             ; preds = %entry
  %2 = landingpad { ptr, i32 }
          cleanup
  %3 = extractvalue { ptr, i32 } %2, 0
  store ptr %3, ptr %exn.slot, align 8
  %4 = extractvalue { ptr, i32 } %2, 1
  store i32 %4, ptr %ehselector.slot, align 4
  call void @_ZNSt7__cxx1112basic_stringIcSt11char_traitsIcESaIcEED1Ev(ptr noundef nonnull align 8 dereferenceable(32) %_M_pathname) #3
  br label %eh.resume

eh.resume:                                        ; preds = %lpad
  %exn = load ptr, ptr %exn.slot, align 8
  %sel = load i32, ptr %ehselector.slot, align 4
  %lpad.val = insertvalue { ptr, i32 } poison, ptr %exn, 0
  %lpad.val4 = insertvalue { ptr, i32 } %lpad.val, i32 %sel, 1
  resume { ptr, i32 } %lpad.val4
}

declare noundef nonnull align 8 dereferenceable(40) ptr @_ZNSt10filesystem7__cxx114pathdVERKS1_(ptr noundef nonnull align 8 dereferenceable(40), ptr noundef nonnull align 8 dereferenceable(40)) #1

declare void @_ZNSt7__cxx1112basic_stringIcSt11char_traitsIcESaIcEEC1ERKS4_(ptr noundef nonnull align 8 dereferenceable(32), ptr noundef nonnull align 8 dereferenceable(32)) unnamed_addr #1

declare void @_ZNSt10filesystem7__cxx114path5_ListC1ERKS2_(ptr noundef nonnull align 8 dereferenceable(8), ptr noundef nonnull align 8 dereferenceable(8)) unnamed_addr #1

; Function Attrs: mustprogress noinline nounwind optnone uwtable
define linkonce_odr dso_local void @_ZNSt10filesystem7__cxx114path5_ListD2Ev(ptr noundef nonnull align 8 dereferenceable(8) %this) unnamed_addr #5 comdat align 2 {
entry:
  %this.addr = alloca ptr, align 8
  store ptr %this, ptr %this.addr, align 8
  %this1 = load ptr, ptr %this.addr, align 8
  %_M_impl = getelementptr inbounds nuw %"struct.std::filesystem::__cxx11::path::_List", ptr %this1, i32 0, i32 0
  call void @_ZNSt10unique_ptrINSt10filesystem7__cxx114path5_List5_ImplENS3_13_Impl_deleterEED2Ev(ptr noundef nonnull align 8 dereferenceable(8) %_M_impl) #3
  ret void
}

; Function Attrs: mustprogress noinline nounwind optnone uwtable
define linkonce_odr dso_local void @_ZNSt10unique_ptrINSt10filesystem7__cxx114path5_List5_ImplENS3_13_Impl_deleterEED2Ev(ptr noundef nonnull align 8 dereferenceable(8) %this) unnamed_addr #5 comdat align 2 personality ptr @__gxx_personality_v0 {
entry:
  %this.addr = alloca ptr, align 8
  %__ptr = alloca ptr, align 8
  store ptr %this, ptr %this.addr, align 8
  %this1 = load ptr, ptr %this.addr, align 8
  %_M_t = getelementptr inbounds nuw %"class.std::unique_ptr", ptr %this1, i32 0, i32 0
  %call = invoke noundef nonnull align 8 dereferenceable(8) ptr @_ZNSt15__uniq_ptr_implINSt10filesystem7__cxx114path5_List5_ImplENS3_13_Impl_deleterEE6_M_ptrEv(ptr noundef nonnull align 8 dereferenceable(8) %_M_t)
          to label %invoke.cont unwind label %terminate.lpad

invoke.cont:                                      ; preds = %entry
  store ptr %call, ptr %__ptr, align 8
  %0 = load ptr, ptr %__ptr, align 8
  %1 = load ptr, ptr %0, align 8
  %cmp = icmp ne ptr %1, null
  br i1 %cmp, label %if.then, label %if.end

if.then:                                          ; preds = %invoke.cont
  %call2 = call noundef nonnull align 1 dereferenceable(1) ptr @_ZNSt10unique_ptrINSt10filesystem7__cxx114path5_List5_ImplENS3_13_Impl_deleterEE11get_deleterEv(ptr noundef nonnull align 8 dereferenceable(8) %this1) #3
  %2 = load ptr, ptr %__ptr, align 8
  %3 = load ptr, ptr %2, align 8
  call void @_ZNKSt10filesystem7__cxx114path5_List13_Impl_deleterclEPNS2_5_ImplE(ptr noundef nonnull align 1 dereferenceable(1) %call2, ptr noundef %3) #3
  br label %if.end

if.end:                                           ; preds = %if.then, %invoke.cont
  %4 = load ptr, ptr %__ptr, align 8
  store ptr null, ptr %4, align 8
  ret void

terminate.lpad:                                   ; preds = %entry
  %5 = landingpad { ptr, i32 }
          catch ptr null
  %6 = extractvalue { ptr, i32 } %5, 0
  call void @__clang_call_terminate(ptr %6) #9
  unreachable
}

; Function Attrs: mustprogress noinline nounwind optnone uwtable
define linkonce_odr dso_local noundef nonnull align 8 dereferenceable(8) ptr @_ZNSt15__uniq_ptr_implINSt10filesystem7__cxx114path5_List5_ImplENS3_13_Impl_deleterEE6_M_ptrEv(ptr noundef nonnull align 8 dereferenceable(8) %this) #5 comdat align 2 {
entry:
  %this.addr = alloca ptr, align 8
  store ptr %this, ptr %this.addr, align 8
  %this1 = load ptr, ptr %this.addr, align 8
  %_M_t = getelementptr inbounds nuw %"class.std::__uniq_ptr_impl", ptr %this1, i32 0, i32 0
  %call = call noundef nonnull align 8 dereferenceable(8) ptr @_ZSt3getILm0EJPNSt10filesystem7__cxx114path5_List5_ImplENS3_13_Impl_deleterEEERNSt13tuple_elementIXT_ESt5tupleIJDpT0_EEE4typeERSB_(ptr noundef nonnull align 8 dereferenceable(8) %_M_t) #3
  ret ptr %call
}

; Function Attrs: noinline noreturn nounwind uwtable
define linkonce_odr hidden void @__clang_call_terminate(ptr noundef %0) #6 comdat {
  %2 = call ptr @__cxa_begin_catch(ptr %0) #3
  call void @_ZSt9terminatev() #9
  unreachable
}

declare ptr @__cxa_begin_catch(ptr)

declare void @_ZSt9terminatev()

; Function Attrs: mustprogress noinline nounwind optnone uwtable
define linkonce_odr dso_local noundef nonnull align 1 dereferenceable(1) ptr @_ZNSt10unique_ptrINSt10filesystem7__cxx114path5_List5_ImplENS3_13_Impl_deleterEE11get_deleterEv(ptr noundef nonnull align 8 dereferenceable(8) %this) #5 comdat align 2 personality ptr @__gxx_personality_v0 {
entry:
  %this.addr = alloca ptr, align 8
  store ptr %this, ptr %this.addr, align 8
  %this1 = load ptr, ptr %this.addr, align 8
  %_M_t = getelementptr inbounds nuw %"class.std::unique_ptr", ptr %this1, i32 0, i32 0
  %call = invoke noundef nonnull align 1 dereferenceable(1) ptr @_ZNSt15__uniq_ptr_implINSt10filesystem7__cxx114path5_List5_ImplENS3_13_Impl_deleterEE10_M_deleterEv(ptr noundef nonnull align 8 dereferenceable(8) %_M_t)
          to label %invoke.cont unwind label %terminate.lpad

invoke.cont:                                      ; preds = %entry
  ret ptr %call

terminate.lpad:                                   ; preds = %entry
  %0 = landingpad { ptr, i32 }
          catch ptr null
  %1 = extractvalue { ptr, i32 } %0, 0
  call void @__clang_call_terminate(ptr %1) #9
  unreachable
}

; Function Attrs: nounwind
declare void @_ZNKSt10filesystem7__cxx114path5_List13_Impl_deleterclEPNS2_5_ImplE(ptr noundef nonnull align 1 dereferenceable(1), ptr noundef) #2

; Function Attrs: mustprogress noinline nounwind optnone uwtable
define linkonce_odr dso_local noundef nonnull align 8 dereferenceable(8) ptr @_ZSt3getILm0EJPNSt10filesystem7__cxx114path5_List5_ImplENS3_13_Impl_deleterEEERNSt13tuple_elementIXT_ESt5tupleIJDpT0_EEE4typeERSB_(ptr noundef nonnull align 8 dereferenceable(8) %__t) #5 comdat {
entry:
  %__t.addr = alloca ptr, align 8
  store ptr %__t, ptr %__t.addr, align 8
  %0 = load ptr, ptr %__t.addr, align 8
  %call = call noundef nonnull align 8 dereferenceable(8) ptr @_ZSt12__get_helperILm0EPNSt10filesystem7__cxx114path5_List5_ImplEJNS3_13_Impl_deleterEEERT0_RSt11_Tuple_implIXT_EJS7_DpT1_EE(ptr noundef nonnull align 8 dereferenceable(8) %0) #3
  ret ptr %call
}

; Function Attrs: mustprogress noinline nounwind optnone uwtable
define linkonce_odr dso_local noundef nonnull align 8 dereferenceable(8) ptr @_ZSt12__get_helperILm0EPNSt10filesystem7__cxx114path5_List5_ImplEJNS3_13_Impl_deleterEEERT0_RSt11_Tuple_implIXT_EJS7_DpT1_EE(ptr noundef nonnull align 8 dereferenceable(8) %__t) #5 comdat {
entry:
  %__t.addr = alloca ptr, align 8
  store ptr %__t, ptr %__t.addr, align 8
  %0 = load ptr, ptr %__t.addr, align 8
  %call = call noundef nonnull align 8 dereferenceable(8) ptr @_ZNSt11_Tuple_implILm0EJPNSt10filesystem7__cxx114path5_List5_ImplENS3_13_Impl_deleterEEE7_M_headERS7_(ptr noundef nonnull align 8 dereferenceable(8) %0) #3
  ret ptr %call
}

; Function Attrs: mustprogress noinline nounwind optnone uwtable
define linkonce_odr dso_local noundef nonnull align 8 dereferenceable(8) ptr @_ZNSt11_Tuple_implILm0EJPNSt10filesystem7__cxx114path5_List5_ImplENS3_13_Impl_deleterEEE7_M_headERS7_(ptr noundef nonnull align 8 dereferenceable(8) %__t) #5 comdat align 2 {
entry:
  %__t.addr = alloca ptr, align 8
  store ptr %__t, ptr %__t.addr, align 8
  %0 = load ptr, ptr %__t.addr, align 8
  %call = call noundef nonnull align 8 dereferenceable(8) ptr @_ZNSt10_Head_baseILm0EPNSt10filesystem7__cxx114path5_List5_ImplELb0EE7_M_headERS6_(ptr noundef nonnull align 8 dereferenceable(8) %0) #3
  ret ptr %call
}

; Function Attrs: mustprogress noinline nounwind optnone uwtable
define linkonce_odr dso_local noundef nonnull align 8 dereferenceable(8) ptr @_ZNSt10_Head_baseILm0EPNSt10filesystem7__cxx114path5_List5_ImplELb0EE7_M_headERS6_(ptr noundef nonnull align 8 dereferenceable(8) %__b) #5 comdat align 2 {
entry:
  %__b.addr = alloca ptr, align 8
  store ptr %__b, ptr %__b.addr, align 8
  %0 = load ptr, ptr %__b.addr, align 8
  %_M_head_impl = getelementptr inbounds nuw %"struct.std::_Head_base.1", ptr %0, i32 0, i32 0
  ret ptr %_M_head_impl
}

; Function Attrs: mustprogress noinline nounwind optnone uwtable
define linkonce_odr dso_local noundef nonnull align 1 dereferenceable(1) ptr @_ZNSt15__uniq_ptr_implINSt10filesystem7__cxx114path5_List5_ImplENS3_13_Impl_deleterEE10_M_deleterEv(ptr noundef nonnull align 8 dereferenceable(8) %this) #5 comdat align 2 {
entry:
  %this.addr = alloca ptr, align 8
  store ptr %this, ptr %this.addr, align 8
  %this1 = load ptr, ptr %this.addr, align 8
  %_M_t = getelementptr inbounds nuw %"class.std::__uniq_ptr_impl", ptr %this1, i32 0, i32 0
  %call = call noundef nonnull align 1 dereferenceable(1) ptr @_ZSt3getILm1EJPNSt10filesystem7__cxx114path5_List5_ImplENS3_13_Impl_deleterEEERNSt13tuple_elementIXT_ESt5tupleIJDpT0_EEE4typeERSB_(ptr noundef nonnull align 8 dereferenceable(8) %_M_t) #3
  ret ptr %call
}

; Function Attrs: mustprogress noinline nounwind optnone uwtable
define linkonce_odr dso_local noundef nonnull align 1 dereferenceable(1) ptr @_ZSt3getILm1EJPNSt10filesystem7__cxx114path5_List5_ImplENS3_13_Impl_deleterEEERNSt13tuple_elementIXT_ESt5tupleIJDpT0_EEE4typeERSB_(ptr noundef nonnull align 8 dereferenceable(8) %__t) #5 comdat {
entry:
  %__t.addr = alloca ptr, align 8
  store ptr %__t, ptr %__t.addr, align 8
  %0 = load ptr, ptr %__t.addr, align 8
  %call = call noundef nonnull align 1 dereferenceable(1) ptr @_ZSt12__get_helperILm1ENSt10filesystem7__cxx114path5_List13_Impl_deleterEJEERT0_RSt11_Tuple_implIXT_EJS5_DpT1_EE(ptr noundef nonnull align 1 dereferenceable(1) %0) #3
  ret ptr %call
}

; Function Attrs: mustprogress noinline nounwind optnone uwtable
define linkonce_odr dso_local noundef nonnull align 1 dereferenceable(1) ptr @_ZSt12__get_helperILm1ENSt10filesystem7__cxx114path5_List13_Impl_deleterEJEERT0_RSt11_Tuple_implIXT_EJS5_DpT1_EE(ptr noundef nonnull align 1 dereferenceable(1) %__t) #5 comdat {
entry:
  %__t.addr = alloca ptr, align 8
  store ptr %__t, ptr %__t.addr, align 8
  %0 = load ptr, ptr %__t.addr, align 8
  %call = call noundef nonnull align 1 dereferenceable(1) ptr @_ZNSt11_Tuple_implILm1EJNSt10filesystem7__cxx114path5_List13_Impl_deleterEEE7_M_headERS5_(ptr noundef nonnull align 1 dereferenceable(1) %0) #3
  ret ptr %call
}

; Function Attrs: mustprogress noinline nounwind optnone uwtable
define linkonce_odr dso_local noundef nonnull align 1 dereferenceable(1) ptr @_ZNSt11_Tuple_implILm1EJNSt10filesystem7__cxx114path5_List13_Impl_deleterEEE7_M_headERS5_(ptr noundef nonnull align 1 dereferenceable(1) %__t) #5 comdat align 2 {
entry:
  %__t.addr = alloca ptr, align 8
  store ptr %__t, ptr %__t.addr, align 8
  %0 = load ptr, ptr %__t.addr, align 8
  %call = call noundef nonnull align 1 dereferenceable(1) ptr @_ZNSt10_Head_baseILm1ENSt10filesystem7__cxx114path5_List13_Impl_deleterELb1EE7_M_headERS5_(ptr noundef nonnull align 1 dereferenceable(1) %0) #3
  ret ptr %call
}

; Function Attrs: mustprogress noinline nounwind optnone uwtable
define linkonce_odr dso_local noundef nonnull align 1 dereferenceable(1) ptr @_ZNSt10_Head_baseILm1ENSt10filesystem7__cxx114path5_List13_Impl_deleterELb1EE7_M_headERS5_(ptr noundef nonnull align 1 dereferenceable(1) %__b) #5 comdat align 2 {
entry:
  %__b.addr = alloca ptr, align 8
  store ptr %__b, ptr %__b.addr, align 8
  %0 = load ptr, ptr %__b.addr, align 8
  ret ptr %0
}

; Function Attrs: mustprogress noinline optnone uwtable
define linkonce_odr dso_local void @_ZNKSt10filesystem7__cxx114path6stringIcSt11char_traitsIcESaIcEEENSt7__cxx1112basic_stringIT_T0_T1_EERKSA_(ptr dead_on_unwind noalias writable sret(%"class.std::__cxx11::basic_string") align 8 %agg.result, ptr noundef nonnull align 8 dereferenceable(40) %this, ptr noundef nonnull align 1 dereferenceable(1) %__a) #4 comdat align 2 {
entry:
  %result.ptr = alloca ptr, align 8
  %this.addr = alloca ptr, align 8
  %__a.addr = alloca ptr, align 8
  store ptr %agg.result, ptr %result.ptr, align 8
  store ptr %this, ptr %this.addr, align 8
  store ptr %__a, ptr %__a.addr, align 8
  %this1 = load ptr, ptr %this.addr, align 8
  %_M_pathname = getelementptr inbounds nuw %"class.std::filesystem::__cxx11::path", ptr %this1, i32 0, i32 0
  %call = call noundef ptr @_ZNKSt7__cxx1112basic_stringIcSt11char_traitsIcESaIcEE5c_strEv(ptr noundef nonnull align 8 dereferenceable(32) %_M_pathname) #3
  %_M_pathname2 = getelementptr inbounds nuw %"class.std::filesystem::__cxx11::path", ptr %this1, i32 0, i32 0
  %call3 = call noundef i64 @_ZNKSt7__cxx1112basic_stringIcSt11char_traitsIcESaIcEE6lengthEv(ptr noundef nonnull align 8 dereferenceable(32) %_M_pathname2) #3
  %0 = load ptr, ptr %__a.addr, align 8
  call void @_ZNSt7__cxx1112basic_stringIcSt11char_traitsIcESaIcEEC1EPKcmRKS3_(ptr noundef nonnull align 8 dereferenceable(32) %agg.result, ptr noundef %call, i64 noundef %call3, ptr noundef nonnull align 1 dereferenceable(1) %0)
  ret void
}

; Function Attrs: nounwind
declare void @_ZNSaIcEC1Ev(ptr noundef nonnull align 1 dereferenceable(1)) unnamed_addr #2

; Function Attrs: nounwind
declare void @_ZNSaIcED1Ev(ptr noundef nonnull align 1 dereferenceable(1)) unnamed_addr #2

; Function Attrs: nounwind
declare noundef ptr @_ZNKSt7__cxx1112basic_stringIcSt11char_traitsIcESaIcEE5c_strEv(ptr noundef nonnull align 8 dereferenceable(32)) #2

; Function Attrs: nounwind
declare noundef i64 @_ZNKSt7__cxx1112basic_stringIcSt11char_traitsIcESaIcEE6lengthEv(ptr noundef nonnull align 8 dereferenceable(32)) #2

declare void @_ZNSt7__cxx1112basic_stringIcSt11char_traitsIcESaIcEEC1EPKcmRKS3_(ptr noundef nonnull align 8 dereferenceable(32), ptr noundef, i64 noundef, ptr noundef nonnull align 1 dereferenceable(1)) unnamed_addr #1

; Function Attrs: mustprogress noinline optnone uwtable
define linkonce_odr dso_local noundef i32 @_ZNSt8ios_base4setfESt13_Ios_FmtflagsS0_(ptr noundef nonnull align 8 dereferenceable(216) %this, i32 noundef %__fmtfl, i32 noundef %__mask) #4 comdat align 2 {
entry:
  %this.addr = alloca ptr, align 8
  %__fmtfl.addr = alloca i32, align 4
  %__mask.addr = alloca i32, align 4
  %__old = alloca i32, align 4
  store ptr %this, ptr %this.addr, align 8
  store i32 %__fmtfl, ptr %__fmtfl.addr, align 4
  store i32 %__mask, ptr %__mask.addr, align 4
  %this1 = load ptr, ptr %this.addr, align 8
  %_M_flags = getelementptr inbounds nuw %"class.std::ios_base", ptr %this1, i32 0, i32 3
  %0 = load i32, ptr %_M_flags, align 8
  store i32 %0, ptr %__old, align 4
  %1 = load i32, ptr %__mask.addr, align 4
  %call = call noundef i32 @_ZStcoSt13_Ios_Fmtflags(i32 noundef %1)
  %_M_flags2 = getelementptr inbounds nuw %"class.std::ios_base", ptr %this1, i32 0, i32 3
  %call3 = call noundef nonnull align 4 dereferenceable(4) ptr @_ZStaNRSt13_Ios_FmtflagsS_(ptr noundef nonnull align 4 dereferenceable(4) %_M_flags2, i32 noundef %call)
  %2 = load i32, ptr %__fmtfl.addr, align 4
  %3 = load i32, ptr %__mask.addr, align 4
  %call4 = call noundef i32 @_ZStanSt13_Ios_FmtflagsS_(i32 noundef %2, i32 noundef %3)
  %_M_flags5 = getelementptr inbounds nuw %"class.std::ios_base", ptr %this1, i32 0, i32 3
  %call6 = call noundef nonnull align 4 dereferenceable(4) ptr @_ZStoRRSt13_Ios_FmtflagsS_(ptr noundef nonnull align 4 dereferenceable(4) %_M_flags5, i32 noundef %call4)
  %4 = load i32, ptr %__old, align 4
  ret i32 %4
}

; Function Attrs: mustprogress noinline optnone uwtable
define linkonce_odr dso_local noundef nonnull align 4 dereferenceable(4) ptr @_ZStaNRSt13_Ios_FmtflagsS_(ptr noundef nonnull align 4 dereferenceable(4) %__a, i32 noundef %__b) #4 comdat {
entry:
  %__a.addr = alloca ptr, align 8
  %__b.addr = alloca i32, align 4
  store ptr %__a, ptr %__a.addr, align 8
  store i32 %__b, ptr %__b.addr, align 4
  %0 = load ptr, ptr %__a.addr, align 8
  %1 = load i32, ptr %0, align 4
  %2 = load i32, ptr %__b.addr, align 4
  %call = call noundef i32 @_ZStanSt13_Ios_FmtflagsS_(i32 noundef %1, i32 noundef %2)
  %3 = load ptr, ptr %__a.addr, align 8
  store i32 %call, ptr %3, align 4
  ret ptr %3
}

; Function Attrs: mustprogress noinline nounwind optnone uwtable
define linkonce_odr dso_local noundef i32 @_ZStcoSt13_Ios_Fmtflags(i32 noundef %__a) #5 comdat {
entry:
  %__a.addr = alloca i32, align 4
  store i32 %__a, ptr %__a.addr, align 4
  %0 = load i32, ptr %__a.addr, align 4
  %not = xor i32 %0, -1
  ret i32 %not
}

; Function Attrs: mustprogress noinline optnone uwtable
define linkonce_odr dso_local noundef nonnull align 4 dereferenceable(4) ptr @_ZStoRRSt13_Ios_FmtflagsS_(ptr noundef nonnull align 4 dereferenceable(4) %__a, i32 noundef %__b) #4 comdat {
entry:
  %__a.addr = alloca ptr, align 8
  %__b.addr = alloca i32, align 4
  store ptr %__a, ptr %__a.addr, align 8
  store i32 %__b, ptr %__b.addr, align 4
  %0 = load ptr, ptr %__a.addr, align 8
  %1 = load i32, ptr %0, align 4
  %2 = load i32, ptr %__b.addr, align 4
  %call = call noundef i32 @_ZStorSt13_Ios_FmtflagsS_(i32 noundef %1, i32 noundef %2)
  %3 = load ptr, ptr %__a.addr, align 8
  store i32 %call, ptr %3, align 4
  ret ptr %3
}

; Function Attrs: mustprogress noinline nounwind optnone uwtable
define linkonce_odr dso_local noundef i32 @_ZStanSt13_Ios_FmtflagsS_(i32 noundef %__a, i32 noundef %__b) #5 comdat {
entry:
  %__a.addr = alloca i32, align 4
  %__b.addr = alloca i32, align 4
  store i32 %__a, ptr %__a.addr, align 4
  store i32 %__b, ptr %__b.addr, align 4
  %0 = load i32, ptr %__a.addr, align 4
  %1 = load i32, ptr %__b.addr, align 4
  %and = and i32 %0, %1
  ret i32 %and
}

; Function Attrs: mustprogress noinline nounwind optnone uwtable
define linkonce_odr dso_local noundef i32 @_ZStorSt13_Ios_FmtflagsS_(i32 noundef %__a, i32 noundef %__b) #5 comdat {
entry:
  %__a.addr = alloca i32, align 4
  %__b.addr = alloca i32, align 4
  store i32 %__a, ptr %__a.addr, align 4
  store i32 %__b, ptr %__b.addr, align 4
  %0 = load i32, ptr %__a.addr, align 4
  %1 = load i32, ptr %__b.addr, align 4
  %or = or i32 %0, %1
  ret i32 %or
}

; Function Attrs: mustprogress noinline nounwind optnone uwtable
define linkonce_odr dso_local { i64, ptr } @_ZNSt10filesystem7__cxx114path10_S_convertEPKcS3_(ptr noundef %__first, ptr noundef %__last) #5 comdat align 2 {
entry:
  %retval = alloca %"class.std::basic_string_view", align 8
  %__first.addr = alloca ptr, align 8
  %__last.addr = alloca ptr, align 8
  store ptr %__first, ptr %__first.addr, align 8
  store ptr %__last, ptr %__last.addr, align 8
  %0 = load ptr, ptr %__first.addr, align 8
  %1 = load ptr, ptr %__last.addr, align 8
  %2 = load ptr, ptr %__first.addr, align 8
  %sub.ptr.lhs.cast = ptrtoint ptr %1 to i64
  %sub.ptr.rhs.cast = ptrtoint ptr %2 to i64
  %sub.ptr.sub = sub i64 %sub.ptr.lhs.cast, %sub.ptr.rhs.cast
  call void @_ZNSt17basic_string_viewIcSt11char_traitsIcEEC2EPKcm(ptr noundef nonnull align 8 dereferenceable(16) %retval, ptr noundef %0, i64 noundef %sub.ptr.sub) #3
  %3 = load { i64, ptr }, ptr %retval, align 8
  ret { i64, ptr } %3
}

; Function Attrs: mustprogress noinline nounwind optnone uwtable
define linkonce_odr dso_local noundef ptr @_ZNSt10filesystem7__cxx118__detail14_S_range_beginIcSt11char_traitsIcESaIcEEEPKT_RKNSt7__cxx1112basic_stringIS6_T0_T1_EE(ptr noundef nonnull align 8 dereferenceable(32) %__str) #5 comdat {
entry:
  %__str.addr = alloca ptr, align 8
  store ptr %__str, ptr %__str.addr, align 8
  %0 = load ptr, ptr %__str.addr, align 8
  %call = call noundef ptr @_ZNKSt7__cxx1112basic_stringIcSt11char_traitsIcESaIcEE4dataEv(ptr noundef nonnull align 8 dereferenceable(32) %0) #3
  ret ptr %call
}

; Function Attrs: mustprogress noinline nounwind optnone uwtable
define linkonce_odr dso_local noundef ptr @_ZNSt10filesystem7__cxx118__detail12_S_range_endIcSt11char_traitsIcESaIcEEEPKT_RKNSt7__cxx1112basic_stringIS6_T0_T1_EE(ptr noundef nonnull align 8 dereferenceable(32) %__str) #5 comdat {
entry:
  %__str.addr = alloca ptr, align 8
  store ptr %__str, ptr %__str.addr, align 8
  %0 = load ptr, ptr %__str.addr, align 8
  %call = call noundef ptr @_ZNKSt7__cxx1112basic_stringIcSt11char_traitsIcESaIcEE4dataEv(ptr noundef nonnull align 8 dereferenceable(32) %0) #3
  %1 = load ptr, ptr %__str.addr, align 8
  %call1 = call noundef i64 @_ZNKSt7__cxx1112basic_stringIcSt11char_traitsIcESaIcEE4sizeEv(ptr noundef nonnull align 8 dereferenceable(32) %1) #3
  %add.ptr = getelementptr inbounds nuw i8, ptr %call, i64 %call1
  ret ptr %add.ptr
}

; Function Attrs: mustprogress noinline optnone uwtable
define linkonce_odr dso_local void @_ZNSt7__cxx1112basic_stringIcSt11char_traitsIcESaIcEEC2ISt17basic_string_viewIcS2_EvEERKT_RKS3_(ptr noundef nonnull align 8 dereferenceable(32) %this, ptr noundef nonnull align 8 dereferenceable(16) %__t, ptr noundef nonnull align 1 dereferenceable(1) %__a) unnamed_addr #4 comdat align 2 {
entry:
  %this.addr = alloca ptr, align 8
  %__t.addr = alloca ptr, align 8
  %__a.addr = alloca ptr, align 8
  %agg.tmp = alloca %"struct.std::__cxx11::basic_string<char>::__sv_wrapper", align 8
  %agg.tmp2 = alloca %"class.std::basic_string_view", align 8
  %agg.tmp3 = alloca %"class.std::basic_string_view", align 8
  store ptr %this, ptr %this.addr, align 8
  store ptr %__t, ptr %__t.addr, align 8
  store ptr %__a, ptr %__a.addr, align 8
  %this1 = load ptr, ptr %this.addr, align 8
  %0 = load ptr, ptr %__t.addr, align 8
  call void @llvm.memcpy.p0.p0.i64(ptr align 8 %agg.tmp3, ptr align 8 %0, i64 16, i1 false)
  %1 = getelementptr inbounds nuw { i64, ptr }, ptr %agg.tmp3, i32 0, i32 0
  %2 = load i64, ptr %1, align 8
  %3 = getelementptr inbounds nuw { i64, ptr }, ptr %agg.tmp3, i32 0, i32 1
  %4 = load ptr, ptr %3, align 8
  %call = call { i64, ptr } @_ZNSt7__cxx1112basic_stringIcSt11char_traitsIcESaIcEE17_S_to_string_viewESt17basic_string_viewIcS2_E(i64 %2, ptr %4) #3
  %5 = getelementptr inbounds nuw { i64, ptr }, ptr %agg.tmp2, i32 0, i32 0
  %6 = extractvalue { i64, ptr } %call, 0
  store i64 %6, ptr %5, align 8
  %7 = getelementptr inbounds nuw { i64, ptr }, ptr %agg.tmp2, i32 0, i32 1
  %8 = extractvalue { i64, ptr } %call, 1
  store ptr %8, ptr %7, align 8
  %9 = getelementptr inbounds nuw { i64, ptr }, ptr %agg.tmp2, i32 0, i32 0
  %10 = load i64, ptr %9, align 8
  %11 = getelementptr inbounds nuw { i64, ptr }, ptr %agg.tmp2, i32 0, i32 1
  %12 = load ptr, ptr %11, align 8
  call void @_ZNSt7__cxx1112basic_stringIcSt11char_traitsIcESaIcEE12__sv_wrapperC1ESt17basic_string_viewIcS2_E(ptr noundef nonnull align 8 dereferenceable(16) %agg.tmp, i64 %10, ptr %12) #3
  %13 = load ptr, ptr %__a.addr, align 8
  %14 = getelementptr inbounds nuw { i64, ptr }, ptr %agg.tmp, i32 0, i32 0
  %15 = load i64, ptr %14, align 8
  %16 = getelementptr inbounds nuw { i64, ptr }, ptr %agg.tmp, i32 0, i32 1
  %17 = load ptr, ptr %16, align 8
  call void @_ZNSt7__cxx1112basic_stringIcSt11char_traitsIcESaIcEEC2ENS4_12__sv_wrapperERKS3_(ptr noundef nonnull align 8 dereferenceable(32) %this1, i64 %15, ptr %17, ptr noundef nonnull align 1 dereferenceable(1) %13)
  ret void
}

declare void @_ZNSt10filesystem7__cxx114path5_ListC1Ev(ptr noundef nonnull align 8 dereferenceable(8)) unnamed_addr #1

declare void @_ZNSt10filesystem7__cxx114path14_M_split_cmptsEv(ptr noundef nonnull align 8 dereferenceable(40)) #1

; Function Attrs: mustprogress noinline nounwind optnone uwtable
define linkonce_odr dso_local void @_ZNSt17basic_string_viewIcSt11char_traitsIcEEC2EPKcm(ptr noundef nonnull align 8 dereferenceable(16) %this, ptr noundef %__str, i64 noundef %__len) unnamed_addr #5 comdat align 2 {
entry:
  %this.addr = alloca ptr, align 8
  %__str.addr = alloca ptr, align 8
  %__len.addr = alloca i64, align 8
  store ptr %this, ptr %this.addr, align 8
  store ptr %__str, ptr %__str.addr, align 8
  store i64 %__len, ptr %__len.addr, align 8
  %this1 = load ptr, ptr %this.addr, align 8
  %_M_len = getelementptr inbounds nuw %"class.std::basic_string_view", ptr %this1, i32 0, i32 0
  %0 = load i64, ptr %__len.addr, align 8
  store i64 %0, ptr %_M_len, align 8
  %_M_str = getelementptr inbounds nuw %"class.std::basic_string_view", ptr %this1, i32 0, i32 1
  %1 = load ptr, ptr %__str.addr, align 8
  store ptr %1, ptr %_M_str, align 8
  ret void
}

; Function Attrs: nounwind
declare noundef ptr @_ZNKSt7__cxx1112basic_stringIcSt11char_traitsIcESaIcEE4dataEv(ptr noundef nonnull align 8 dereferenceable(32)) #2

; Function Attrs: nounwind
declare noundef i64 @_ZNKSt7__cxx1112basic_stringIcSt11char_traitsIcESaIcEE4sizeEv(ptr noundef nonnull align 8 dereferenceable(32)) #2

; Function Attrs: nounwind
declare { i64, ptr } @_ZNSt7__cxx1112basic_stringIcSt11char_traitsIcESaIcEE17_S_to_string_viewESt17basic_string_viewIcS2_E(i64, ptr) #2

; Function Attrs: nocallback nofree nounwind willreturn memory(argmem: readwrite)
declare void @llvm.memcpy.p0.p0.i64(ptr noalias nocapture writeonly, ptr noalias nocapture readonly, i64, i1 immarg) #7

; Function Attrs: nounwind
declare void @_ZNSt7__cxx1112basic_stringIcSt11char_traitsIcESaIcEE12__sv_wrapperC1ESt17basic_string_viewIcS2_E(ptr noundef nonnull align 8 dereferenceable(16), i64, ptr) unnamed_addr #2

declare void @_ZNSt7__cxx1112basic_stringIcSt11char_traitsIcESaIcEEC2ENS4_12__sv_wrapperERKS3_(ptr noundef nonnull align 8 dereferenceable(32), i64, ptr, ptr noundef nonnull align 1 dereferenceable(1)) unnamed_addr #1

; Function Attrs: noinline uwtable
define internal void @_GLOBAL__sub_I_fuzz.cpp() #0 section ".text.startup" {
entry:
  call void @__cxx_global_var_init()
  ret void
}

attributes #0 = { noinline uwtable "frame-pointer"="all" "min-legal-vector-width"="0" "no-trapping-math"="true" "stack-protector-buffer-size"="8" "target-cpu"="x86-64" "target-features"="+cmov,+cx8,+fxsr,+mmx,+sse,+sse2,+x87" "tune-cpu"="generic" }
attributes #1 = { "frame-pointer"="all" "no-trapping-math"="true" "stack-protector-buffer-size"="8" "target-cpu"="x86-64" "target-features"="+cmov,+cx8,+fxsr,+mmx,+sse,+sse2,+x87" "tune-cpu"="generic" }
attributes #2 = { nounwind "frame-pointer"="all" "no-trapping-math"="true" "stack-protector-buffer-size"="8" "target-cpu"="x86-64" "target-features"="+cmov,+cx8,+fxsr,+mmx,+sse,+sse2,+x87" "tune-cpu"="generic" }
attributes #3 = { nounwind }
attributes #4 = { mustprogress noinline optnone uwtable "frame-pointer"="all" "min-legal-vector-width"="0" "no-trapping-math"="true" "stack-protector-buffer-size"="8" "target-cpu"="x86-64" "target-features"="+cmov,+cx8,+fxsr,+mmx,+sse,+sse2,+x87" "tune-cpu"="generic" }
attributes #5 = { mustprogress noinline nounwind optnone uwtable "frame-pointer"="all" "min-legal-vector-width"="0" "no-trapping-math"="true" "stack-protector-buffer-size"="8" "target-cpu"="x86-64" "target-features"="+cmov,+cx8,+fxsr,+mmx,+sse,+sse2,+x87" "tune-cpu"="generic" }
attributes #6 = { noinline noreturn nounwind uwtable "frame-pointer"="all" "no-trapping-math"="true" "stack-protector-buffer-size"="8" "target-cpu"="x86-64" "target-features"="+cmov,+cx8,+fxsr,+mmx,+sse,+sse2,+x87" "tune-cpu"="generic" }
attributes #7 = { nocallback nofree nounwind willreturn memory(argmem: readwrite) }
attributes #8 = { nounwind memory(none) }
attributes #9 = { noreturn nounwind }

!llvm.module.flags = !{!0, !1, !2, !3, !4}
!llvm.ident = !{!5}

!0 = !{i32 1, !"wchar_size", i32 4}
!1 = !{i32 8, !"PIC Level", i32 2}
!2 = !{i32 7, !"PIE Level", i32 2}
!3 = !{i32 7, !"uwtable", i32 2}
!4 = !{i32 7, !"frame-pointer", i32 2}
!5 = !{!"clang version 20.0.0git (https://github.com/llvm/llvm-project.git 5dd9867e2d1e698fee980e31da114a37e4c7f612)"}
!6 = distinct !{!6, !7}
!7 = !{!"llvm.loop.mustprogress"}
!8 = distinct !{!8, !7}
!9 = !{i64 2853}
